target datalayout = "e-m:e-p270:32:32-p271:32:32-p272:64:64-i64:64-i128:128-f80:128-n8:16:32:64-S128"
target triple = "x86_64-pc-linux-gnu"

%struct.anon.1 = type { i32, i32 }
%struct.AVCodecContext = type { ptr, i32, i32, ptr, i32, i32, ptr, ptr, ptr, i64, i32, i32, ptr, i32, %struct.AVRational, %struct.AVRational, %struct.AVRational, i32, i32, i32, i32, i32, %struct.AVRational, i32, i32, i32, i32, i32, i32, i32, i32, i32, i32, i32, ptr, ptr, i32, float, float, float, float, float, float, float, float, float, i32, i32, i32, i32, i32, i32, i32, i32, i32, i32, i32, i32, ptr, ptr, ptr, i32, i32, i32, i32, i32, i32, i32, i32, i32, i32, %struct.AVChannelLayout, i32, i32, i32, i32, i32, i32, i32, i32, ptr, i32, i32, i32, float, float, i32, i32, i32, i32, i32, ptr, i64, i64, float, float, i32, i32, ptr, ptr, i32, i32, i32, i32, i32, ptr, ptr, ptr, ptr, i32, i32, [8 x i64], i32, i32, i32, i32, i32, i32, i32, ptr, ptr, i32, i32, i32, i32, i32, i32, i32, i32, i32, i32, ptr, ptr, i32, i32, ptr, ptr, ptr, ptr, i32, i32, i64, i32, i32, i64, ptr, i64, ptr, i32, ptr, i32 }
%struct.AVRational = type { i32, i32 }
%struct.AVChannelLayout = type { i32, i32, %union.anon, ptr }
%union.anon = type { i64 }
%struct.AVCodecInternal = type { i32, i32, i32, ptr, ptr, ptr, ptr, ptr, ptr, ptr, i32, ptr, ptr, ptr, i32, i32, ptr, i32, ptr, ptr, i32, i32 }
%struct.VAAPIDecodeContext = type { i32, i32, ptr, ptr, ptr, ptr, i32, i32, %struct._VASurfaceAttrib }
%struct._VASurfaceAttrib = type { i32, i32, %struct._VAGenericValue }
%struct._VAGenericValue = type { i32, %union.anon.0 }
%union.anon.0 = type { ptr }
%struct.AVVAAPIDeviceContext = type { ptr, i32 }
%struct.AVHWFramesContext = type { ptr, ptr, ptr, ptr, ptr, ptr, ptr, i32, i32, i32, i32, i32 }
%struct.AVHWDeviceContext = type { ptr, i32, ptr, ptr, ptr }
%struct.AVVAAPIFramesContext = type { ptr, i32, ptr, i32 }

@.str = private unnamed_addr constant [30 x i8] c"Assertion %s failed at %s:%d\0A\00", align 1
@.str.2 = private unnamed_addr constant [26 x i8] c"libavcodec/vaapi_decode.c\00", align 1
@.str.32 = private unnamed_addr constant [33 x i8] c"source_format != AV_PIX_FMT_NONE\00", align 1
@.str.33 = private unnamed_addr constant [46 x i8] c"Failed to query surface attributes: %d (%s).\0A\00", align 1
@.str.34 = private unnamed_addr constant [30 x i8] c"Ignoring unknown format %#x.\0A\00", align 1
@.str.35 = private unnamed_addr constant [31 x i8] c"Considering format %#x -> %s.\0A\00", align 1
@.str.36 = private unnamed_addr constant [33 x i8] c"No usable formats for decoding!\0A\00", align 1
@.str.37 = private unnamed_addr constant [39 x i8] c"Picked %s (%#x) as best match for %s.\0A\00", align 1

; Function Attrs: nounwind uwtable
define internal i32 @vaapi_decode_find_best_format(ptr noundef %0, ptr noundef %1, i32 noundef %2, ptr noundef %3) #0 {
  %5 = alloca i32, align 4
  %6 = alloca ptr, align 8
  %7 = alloca ptr, align 8
  %8 = alloca i32, align 4
  %9 = alloca ptr, align 8
  %10 = alloca ptr, align 8
  %11 = alloca i32, align 4
  %12 = alloca ptr, align 8
  %13 = alloca i32, align 4
  %14 = alloca i32, align 4
  %15 = alloca i32, align 4
  %16 = alloca i32, align 4
  %17 = alloca i32, align 4
  %18 = alloca i32, align 4
  %19 = alloca i32, align 4
  %20 = alloca i32, align 4
  %21 = alloca i32, align 4
  %22 = alloca ptr, align 8
  %23 = alloca ptr, align 8
  %24 = alloca %struct._VASurfaceAttrib, align 8
  store ptr %0, ptr %6, align 8, !tbaa !4
  store ptr %1, ptr %7, align 8, !tbaa !74
  store i32 %2, ptr %8, align 4, !tbaa !11
  store ptr %3, ptr %9, align 8, !tbaa !70
  call void @llvm.lifetime.start.p0(i64 8, ptr %10) #6
  %25 = load ptr, ptr %7, align 8, !tbaa !74
  %26 = getelementptr inbounds nuw %struct.AVHWDeviceContext, ptr %25, i32 0, i32 2
  %27 = load ptr, ptr %26, align 8, !tbaa !77
  store ptr %27, ptr %10, align 8, !tbaa !78
  call void @llvm.lifetime.start.p0(i64 4, ptr %11) #6
  call void @llvm.lifetime.start.p0(i64 8, ptr %12) #6
  call void @llvm.lifetime.start.p0(i64 4, ptr %13) #6
  call void @llvm.lifetime.start.p0(i64 4, ptr %14) #6
  call void @llvm.lifetime.start.p0(i64 4, ptr %15) #6
  call void @llvm.lifetime.start.p0(i64 4, ptr %16) #6
  call void @llvm.lifetime.start.p0(i64 4, ptr %17) #6
  call void @llvm.lifetime.start.p0(i64 4, ptr %18) #6
  call void @llvm.lifetime.start.p0(i64 4, ptr %19) #6
  call void @llvm.lifetime.start.p0(i64 4, ptr %20) #6
  %28 = load ptr, ptr %6, align 8, !tbaa !4
  %29 = getelementptr inbounds nuw %struct.AVCodecContext, ptr %28, i32 0, i32 24
  %30 = load i32, ptr %29, align 4, !tbaa !123
  store i32 %30, ptr %13, align 4, !tbaa !11
  br label %31

31:                                               ; preds = %4
  %32 = load i32, ptr %13, align 4, !tbaa !11
  %33 = icmp ne i32 %32, -1
  br i1 %33, label %35, label %34

34:                                               ; preds = %31
  call void (ptr, i32, ptr, ...) @av_log(ptr noundef null, i32 noundef 0, ptr noundef @.str, ptr noundef @.str.32, ptr noundef @.str.2, i32 noundef 330)
  call void @abort() #7
  unreachable

35:                                               ; preds = %31
  br label %36

36:                                               ; preds = %35
  br label %37

37:                                               ; preds = %36
  %38 = load ptr, ptr %10, align 8, !tbaa !78
  %39 = getelementptr inbounds nuw %struct.AVVAAPIDeviceContext, ptr %38, i32 0, i32 0
  %40 = load ptr, ptr %39, align 8, !tbaa !56
  %41 = load i32, ptr %8, align 4, !tbaa !11
  %42 = call i32 @vaQuerySurfaceAttributes(ptr noundef %40, i32 noundef %41, ptr noundef null, ptr noundef %20)
  store i32 %42, ptr %11, align 4, !tbaa !11
  %43 = load i32, ptr %11, align 4, !tbaa !11
  %44 = icmp ne i32 %43, 0
  br i1 %44, label %45, label %50

45:                                               ; preds = %37
  %46 = load ptr, ptr %6, align 8, !tbaa !4
  %47 = load i32, ptr %11, align 4, !tbaa !11
  %48 = load i32, ptr %11, align 4, !tbaa !11
  %49 = call ptr @vaErrorStr(i32 noundef %48)
  call void (ptr, i32, ptr, ...) @av_log(ptr noundef %46, i32 noundef 16, ptr noundef @.str.33, i32 noundef %47, ptr noundef %49)
  store i32 -38, ptr %5, align 4
  store i32 1, ptr %21, align 4
  br label %187

50:                                               ; preds = %37
  %51 = load i32, ptr %20, align 4, !tbaa !11
  %52 = sext i32 %51 to i64
  %53 = call ptr @av_malloc_array(i64 noundef %52, i64 noundef 24)
  store ptr %53, ptr %12, align 8, !tbaa !124
  %54 = load ptr, ptr %12, align 8, !tbaa !124
  %55 = icmp ne ptr %54, null
  br i1 %55, label %57, label %56

56:                                               ; preds = %50
  store i32 -12, ptr %5, align 4
  store i32 1, ptr %21, align 4
  br label %187

57:                                               ; preds = %50
  %58 = load ptr, ptr %10, align 8, !tbaa !78
  %59 = getelementptr inbounds nuw %struct.AVVAAPIDeviceContext, ptr %58, i32 0, i32 0
  %60 = load ptr, ptr %59, align 8, !tbaa !56
  %61 = load i32, ptr %8, align 4, !tbaa !11
  %62 = load ptr, ptr %12, align 8, !tbaa !124
  %63 = call i32 @vaQuerySurfaceAttributes(ptr noundef %60, i32 noundef %61, ptr noundef %62, ptr noundef %20)
  store i32 %63, ptr %11, align 4, !tbaa !11
  %64 = load i32, ptr %11, align 4, !tbaa !11
  %65 = icmp ne i32 %64, 0
  br i1 %65, label %66, label %71

66:                                               ; preds = %57
  %67 = load ptr, ptr %6, align 8, !tbaa !4
  %68 = load i32, ptr %11, align 4, !tbaa !11
  %69 = load i32, ptr %11, align 4, !tbaa !11
  %70 = call ptr @vaErrorStr(i32 noundef %69)
  call void (ptr, i32, ptr, ...) @av_log(ptr noundef %67, i32 noundef 16, ptr noundef @.str.33, i32 noundef %68, ptr noundef %70)
  call void @av_freep(ptr noundef %12)
  store i32 -38, ptr %5, align 4
  store i32 1, ptr %21, align 4
  br label %187

71:                                               ; preds = %57
  store i32 -1, ptr %14, align 4, !tbaa !11
  store i32 0, ptr %18, align 4, !tbaa !11
  br label %72

72:                                               ; preds = %137, %71
  %73 = load i32, ptr %18, align 4, !tbaa !11
  %74 = load i32, ptr %20, align 4, !tbaa !11
  %75 = icmp slt i32 %73, %74
  br i1 %75, label %76, label %140

76:                                               ; preds = %72
  %77 = load ptr, ptr %12, align 8, !tbaa !124
  %78 = load i32, ptr %18, align 4, !tbaa !11
  %79 = sext i32 %78 to i64
  %80 = getelementptr inbounds %struct._VASurfaceAttrib, ptr %77, i64 %79
  %81 = getelementptr inbounds nuw %struct._VASurfaceAttrib, ptr %80, i32 0, i32 0
  %82 = load i32, ptr %81, align 8, !tbaa !125
  %83 = icmp ne i32 %82, 1
  br i1 %83, label %84, label %85

84:                                               ; preds = %76
  br label %137

85:                                               ; preds = %76
  %86 = load ptr, ptr %12, align 8, !tbaa !124
  %87 = load i32, ptr %18, align 4, !tbaa !11
  %88 = sext i32 %87 to i64
  %89 = getelementptr inbounds %struct._VASurfaceAttrib, ptr %86, i64 %88
  %90 = getelementptr inbounds nuw %struct._VASurfaceAttrib, ptr %89, i32 0, i32 2
  %91 = getelementptr inbounds nuw %struct._VAGenericValue, ptr %90, i32 0, i32 1
  %92 = load i32, ptr %91, align 8, !tbaa !126
  store i32 %92, ptr %17, align 4, !tbaa !11
  store i32 0, ptr %19, align 4, !tbaa !11
  br label %93

93:                                               ; preds = %107, %85
  %94 = load i32, ptr %19, align 4, !tbaa !11
  %95 = sext i32 %94 to i64
  %96 = icmp ult i64 %95, 20
  br i1 %96, label %97, label %110

97:                                               ; preds = %93
  %98 = load i32, ptr %17, align 4, !tbaa !11
  %99 = load i32, ptr %19, align 4, !tbaa !11
  %100 = sext i32 %99 to i64
  %101 = getelementptr inbounds [20 x %struct.anon.1], ptr @vaapi_format_map, i64 0, i64 %100
  %102 = getelementptr inbounds nuw %struct.anon.1, ptr %101, i32 0, i32 0
  %103 = load i32, ptr %102, align 8, !tbaa !127
  %104 = icmp eq i32 %98, %103
  br i1 %104, label %105, label %106

105:                                              ; preds = %97
  br label %110

106:                                              ; preds = %97
  br label %107

107:                                              ; preds = %106
  %108 = load i32, ptr %19, align 4, !tbaa !11
  %109 = add nsw i32 %108, 1
  store i32 %109, ptr %19, align 4, !tbaa !11
  br label %93, !llvm.loop !129

110:                                              ; preds = %105, %93
  %111 = load i32, ptr %19, align 4, !tbaa !11
  %112 = sext i32 %111 to i64
  %113 = icmp uge i64 %112, 20
  br i1 %113, label %114, label %117

114:                                              ; preds = %110
  %115 = load ptr, ptr %6, align 8, !tbaa !4
  %116 = load i32, ptr %17, align 4, !tbaa !11
  call void (ptr, i32, ptr, ...) @av_log(ptr noundef %115, i32 noundef 48, ptr noundef @.str.34, i32 noundef %116)
  br label %137

117:                                              ; preds = %110
  %118 = load i32, ptr %19, align 4, !tbaa !11
  %119 = sext i32 %118 to i64
  %120 = getelementptr inbounds [20 x %struct.anon.1], ptr @vaapi_format_map, i64 0, i64 %119
  %121 = getelementptr inbounds nuw %struct.anon.1, ptr %120, i32 0, i32 1
  %122 = load i32, ptr %121, align 4, !tbaa !130
  store i32 %122, ptr %15, align 4, !tbaa !11
  %123 = load ptr, ptr %6, align 8, !tbaa !4
  %124 = load i32, ptr %17, align 4, !tbaa !11
  %125 = load i32, ptr %15, align 4, !tbaa !11
  %126 = call ptr @av_get_pix_fmt_name(i32 noundef %125)
  call void (ptr, i32, ptr, ...) @av_log(ptr noundef %123, i32 noundef 48, ptr noundef @.str.35, i32 noundef %124, ptr noundef %126)
  %127 = load i32, ptr %15, align 4, !tbaa !11
  %128 = load i32, ptr %14, align 4, !tbaa !11
  %129 = load i32, ptr %13, align 4, !tbaa !11
  %130 = call i32 @av_find_best_pix_fmt_of_2(i32 noundef %127, i32 noundef %128, i32 noundef %129, i32 noundef 0, ptr noundef null)
  store i32 %130, ptr %14, align 4, !tbaa !11
  %131 = load i32, ptr %15, align 4, !tbaa !11
  %132 = load i32, ptr %14, align 4, !tbaa !11
  %133 = icmp eq i32 %131, %132
  br i1 %133, label %134, label %136

134:                                              ; preds = %117
  %135 = load i32, ptr %17, align 4, !tbaa !11
  store i32 %135, ptr %16, align 4, !tbaa !11
  br label %136

136:                                              ; preds = %134, %117
  br label %137

137:                                              ; preds = %136, %114, %84
  %138 = load i32, ptr %18, align 4, !tbaa !11
  %139 = add nsw i32 %138, 1
  store i32 %139, ptr %18, align 4, !tbaa !11
  br label %72, !llvm.loop !131

140:                                              ; preds = %72
  call void @av_freep(ptr noundef %12)
  %141 = load i32, ptr %14, align 4, !tbaa !11
  %142 = icmp eq i32 %141, -1
  br i1 %142, label %143, label %145

143:                                              ; preds = %140
  %144 = load ptr, ptr %6, align 8, !tbaa !4
  call void (ptr, i32, ptr, ...) @av_log(ptr noundef %144, i32 noundef 16, ptr noundef @.str.36)
  store i32 -22, ptr %5, align 4
  store i32 1, ptr %21, align 4
  br label %187

145:                                              ; preds = %140
  %146 = load ptr, ptr %6, align 8, !tbaa !4
  %147 = load i32, ptr %14, align 4, !tbaa !11
  %148 = call ptr @av_get_pix_fmt_name(i32 noundef %147)
  %149 = load i32, ptr %16, align 4, !tbaa !11
  %150 = load i32, ptr %13, align 4, !tbaa !11
  %151 = call ptr @av_get_pix_fmt_name(i32 noundef %150)
  call void (ptr, i32, ptr, ...) @av_log(ptr noundef %146, i32 noundef 48, ptr noundef @.str.37, ptr noundef %148, i32 noundef %149, ptr noundef %151)
  %152 = load i32, ptr %14, align 4, !tbaa !11
  %153 = load ptr, ptr %9, align 8, !tbaa !70
  %154 = getelementptr inbounds nuw %struct.AVHWFramesContext, ptr %153, i32 0, i32 9
  store i32 %152, ptr %154, align 8, !tbaa !132
  %155 = load ptr, ptr %6, align 8, !tbaa !4
  %156 = getelementptr inbounds nuw %struct.AVCodecContext, ptr %155, i32 0, i32 7
  %157 = load ptr, ptr %156, align 8, !tbaa !16
  %158 = getelementptr inbounds nuw %struct.AVCodecInternal, ptr %157, i32 0, i32 16
  %159 = load ptr, ptr %158, align 8, !tbaa !34
  %160 = icmp ne ptr %159, null
  br i1 %160, label %161, label %186

161:                                              ; preds = %145
  call void @llvm.lifetime.start.p0(i64 8, ptr %22) #6
  %162 = load ptr, ptr %6, align 8, !tbaa !4
  %163 = getelementptr inbounds nuw %struct.AVCodecContext, ptr %162, i32 0, i32 7
  %164 = load ptr, ptr %163, align 8, !tbaa !16
  %165 = getelementptr inbounds nuw %struct.AVCodecInternal, ptr %164, i32 0, i32 16
  %166 = load ptr, ptr %165, align 8, !tbaa !34
  store ptr %166, ptr %22, align 8, !tbaa !41
  call void @llvm.lifetime.start.p0(i64 8, ptr %23) #6
  %167 = load ptr, ptr %9, align 8, !tbaa !70
  %168 = getelementptr inbounds nuw %struct.AVHWFramesContext, ptr %167, i32 0, i32 3
  %169 = load ptr, ptr %168, align 8, !tbaa !116
  store ptr %169, ptr %23, align 8, !tbaa !133
  %170 = load ptr, ptr %22, align 8, !tbaa !41
  %171 = getelementptr inbounds nuw %struct.VAAPIDecodeContext, ptr %170, i32 0, i32 8
  %172 = getelementptr inbounds nuw %struct._VASurfaceAttrib, ptr %24, i32 0, i32 0
  store i32 1, ptr %172, align 8, !tbaa !125
  %173 = getelementptr inbounds nuw %struct._VASurfaceAttrib, ptr %24, i32 0, i32 1
  store i32 2, ptr %173, align 4, !tbaa !134
  %174 = getelementptr inbounds nuw %struct._VASurfaceAttrib, ptr %24, i32 0, i32 2
  %175 = getelementptr inbounds nuw %struct._VAGenericValue, ptr %174, i32 0, i32 0
  store i32 1, ptr %175, align 8, !tbaa !135
  %176 = getelementptr i8, ptr %174, i64 4
  call void @llvm.memset.p0.i64(ptr align 4 %176, i8 0, i64 4, i1 false)
  %177 = getelementptr inbounds nuw %struct._VAGenericValue, ptr %174, i32 0, i32 1
  %178 = load i32, ptr %16, align 4, !tbaa !11
  store i32 %178, ptr %177, align 8, !tbaa !126
  %179 = getelementptr i8, ptr %177, i64 4
  call void @llvm.memset.p0.i64(ptr align 4 %179, i8 0, i64 4, i1 false)
  call void @llvm.memcpy.p0.p0.i64(ptr align 8 %171, ptr align 8 %24, i64 24, i1 false), !tbaa.struct !136
  %180 = load ptr, ptr %22, align 8, !tbaa !41
  %181 = getelementptr inbounds nuw %struct.VAAPIDecodeContext, ptr %180, i32 0, i32 8
  %182 = load ptr, ptr %23, align 8, !tbaa !133
  %183 = getelementptr inbounds nuw %struct.AVVAAPIFramesContext, ptr %182, i32 0, i32 0
  store ptr %181, ptr %183, align 8, !tbaa !137
  %184 = load ptr, ptr %23, align 8, !tbaa !133
  %185 = getelementptr inbounds nuw %struct.AVVAAPIFramesContext, ptr %184, i32 0, i32 1
  store i32 1, ptr %185, align 8, !tbaa !138
  call void @llvm.lifetime.end.p0(i64 8, ptr %23) #6
  call void @llvm.lifetime.end.p0(i64 8, ptr %22) #6
  br label %186

186:                                              ; preds = %161, %145
  store i32 0, ptr %5, align 4
  store i32 1, ptr %21, align 4
  br label %187

187:                                              ; preds = %186, %143, %66, %56, %45
  call void @llvm.lifetime.end.p0(i64 4, ptr %20) #6
  call void @llvm.lifetime.end.p0(i64 4, ptr %19) #6
  call void @llvm.lifetime.end.p0(i64 4, ptr %18) #6
  call void @llvm.lifetime.end.p0(i64 4, ptr %17) #6
  call void @llvm.lifetime.end.p0(i64 4, ptr %16) #6
  call void @llvm.lifetime.end.p0(i64 4, ptr %15) #6
  call void @llvm.lifetime.end.p0(i64 4, ptr %14) #6
  call void @llvm.lifetime.end.p0(i64 4, ptr %13) #6
  call void @llvm.lifetime.end.p0(i64 8, ptr %12) #6
  call void @llvm.lifetime.end.p0(i64 4, ptr %11) #6
  call void @llvm.lifetime.end.p0(i64 8, ptr %10) #6
  %188 = load i32, ptr %5, align 4
  ret i32 %188
}