; Function Attrs: nounwind uwtable
define internal fastcc range(i32 -38, 1) i32 @vaapi_decode_find_best_format(ptr noundef %0, ptr readonly captures(none) %.16.val, i32 noundef %1, ptr noundef captures(none) %2) unnamed_addr #0 {
  %4 = alloca ptr, align 8
  %5 = alloca i32, align 4
  call void @llvm.lifetime.start.p0(i64 8, ptr nonnull %4) #4
  call void @llvm.lifetime.start.p0(i64 4, ptr nonnull %5) #4
  %6 = getelementptr inbounds nuw i8, ptr %0, i64 140
  %7 = load i32, ptr %6, align 4, !tbaa !110
  %.not = icmp eq i32 %7, -1
  br i1 %.not, label %8, label %9

8:                                                ; preds = %3
  tail call void (ptr, i32, ptr, ...) @av_log(ptr noundef null, i32 noundef 0, ptr noundef nonnull @.str, ptr noundef nonnull @.str.32, ptr noundef nonnull @.str.2, i32 noundef 330) #4
  tail call void @abort() #5
  unreachable

9:                                                ; preds = %3
  %10 = load ptr, ptr %.16.val, align 8, !tbaa !46
  %11 = call i32 @vaQuerySurfaceAttributes(ptr noundef %10, i32 noundef %1, ptr noundef null, ptr noundef nonnull %5) #4
  %.not66 = icmp eq i32 %11, 0
  br i1 %.not66, label %14, label %12

12:                                               ; preds = %9
  %13 = call ptr @vaErrorStr(i32 noundef %11) #4
  call void (ptr, i32, ptr, ...) @av_log(ptr noundef nonnull %0, i32 noundef 16, ptr noundef nonnull @.str.33, i32 noundef %11, ptr noundef %13) #4
  br label %62

14:                                               ; preds = %9
  %15 = load i32, ptr %5, align 4, !tbaa !49
  %16 = sext i32 %15 to i64
  %17 = call ptr @av_malloc_array(i64 noundef %16, i64 noundef 24) #4
  store ptr %17, ptr %4, align 8, !tbaa !111
  %.not67 = icmp eq ptr %17, null
  br i1 %.not67, label %62, label %18

18:                                               ; preds = %14
  %19 = load ptr, ptr %.16.val, align 8, !tbaa !46
  %20 = call i32 @vaQuerySurfaceAttributes(ptr noundef %19, i32 noundef %1, ptr noundef nonnull %17, ptr noundef nonnull %5) #4
  %.not68 = icmp eq i32 %20, 0
  br i1 %.not68, label %.preheader, label %23

.preheader:                                       ; preds = %18
  %21 = load i32, ptr %5, align 4, !tbaa !49
  %22 = icmp sgt i32 %21, 0
  br i1 %22, label %.lr.ph, label %._crit_edge.thread

._crit_edge.thread:                               ; preds = %.preheader
  call void @av_freep(ptr noundef nonnull %4) #4
  br label %48

23:                                               ; preds = %18
  %24 = call ptr @vaErrorStr(i32 noundef %20) #4
  call void (ptr, i32, ptr, ...) @av_log(ptr noundef nonnull %0, i32 noundef 16, ptr noundef nonnull @.str.33, i32 noundef %20, ptr noundef %24) #4
  call void @av_freep(ptr noundef nonnull %4) #4
  br label %62

.lr.ph:                                           ; preds = %.preheader, %43
  %indvars.iv9 = phi i64 [ %indvars.iv.next10, %43 ], [ 0, %.preheader ]
  %.0525 = phi i32 [ %.1, %43 ], [ -1, %.preheader ]
  %.0534 = phi i32 [ %.154, %43 ], [ undef, %.preheader ]
  %25 = load ptr, ptr %4, align 8, !tbaa !111
  %26 = getelementptr inbounds nuw %struct._VASurfaceAttrib, ptr %25, i64 %indvars.iv9
  %27 = load i32, ptr %26, align 8, !tbaa !112
  %.not70 = icmp eq i32 %27, 1
  br i1 %.not70, label %28, label %43

28:                                               ; preds = %.lr.ph
  %29 = getelementptr inbounds nuw i8, ptr %26, i64 16
  %30 = load i32, ptr %29, align 8, !tbaa !113
  br label %32

31:                                               ; preds = %32
  %indvars.iv.next = add nuw nsw i64 %indvars.iv, 1
  %exitcond.not = icmp eq i64 %indvars.iv.next, 20
  br i1 %exitcond.not, label %36, label %32, !llvm.loop !114

32:                                               ; preds = %28, %31
  %indvars.iv = phi i64 [ 0, %28 ], [ %indvars.iv.next, %31 ]
  %33 = getelementptr inbounds nuw [20 x %struct.anon.1], ptr @vaapi_format_map, i64 0, i64 %indvars.iv
  %34 = load i32, ptr %33, align 8, !tbaa !115
  %35 = icmp eq i32 %30, %34
  br i1 %35, label %37, label %31

36:                                               ; preds = %31
  call void (ptr, i32, ptr, ...) @av_log(ptr noundef %0, i32 noundef 48, ptr noundef nonnull @.str.34, i32 noundef %30) #4
  br label %43

37:                                               ; preds = %32
  %38 = getelementptr inbounds nuw [20 x %struct.anon.1], ptr @vaapi_format_map, i64 0, i64 %indvars.iv, i32 1
  %39 = load i32, ptr %38, align 4, !tbaa !117
  %40 = call ptr @av_get_pix_fmt_name(i32 noundef %39) #4
  call void (ptr, i32, ptr, ...) @av_log(ptr noundef %0, i32 noundef 48, ptr noundef nonnull @.str.35, i32 noundef %30, ptr noundef %40) #4
  %41 = call i32 @av_find_best_pix_fmt_of_2(i32 noundef %39, i32 noundef %.0525, i32 noundef %7, i32 noundef 0, ptr noundef null) #4
  %42 = icmp eq i32 %39, %41
  %spec.select = select i1 %42, i32 %30, i32 %.0534
  br label %43

43:                                               ; preds = %37, %.lr.ph, %36
  %.154 = phi i32 [ %.0534, %.lr.ph ], [ %.0534, %36 ], [ %spec.select, %37 ]
  %.1 = phi i32 [ %.0525, %.lr.ph ], [ %.0525, %36 ], [ %41, %37 ]
  %indvars.iv.next10 = add nuw nsw i64 %indvars.iv9, 1
  %44 = load i32, ptr %5, align 4, !tbaa !49
  %45 = sext i32 %44 to i64
  %46 = icmp slt i64 %indvars.iv.next10, %45
  br i1 %46, label %.lr.ph, label %._crit_edge, !llvm.loop !118

._crit_edge:                                      ; preds = %43
  call void @av_freep(ptr noundef nonnull %4) #4
  %47 = icmp eq i32 %.1, -1
  br i1 %47, label %48, label %49

48:                                               ; preds = %._crit_edge.thread, %._crit_edge
  call void (ptr, i32, ptr, ...) @av_log(ptr noundef %0, i32 noundef 16, ptr noundef nonnull @.str.36) #4
  br label %62

49:                                               ; preds = %._crit_edge
  %50 = call ptr @av_get_pix_fmt_name(i32 noundef %.1) #4
  %51 = call ptr @av_get_pix_fmt_name(i32 noundef %7) #4
  call void (ptr, i32, ptr, ...) @av_log(ptr noundef %0, i32 noundef 48, ptr noundef nonnull @.str.37, ptr noundef %50, i32 noundef %.154, ptr noundef %51) #4
  %52 = getelementptr inbounds nuw i8, ptr %2, i64 64
  store i32 %.1, ptr %52, align 8, !tbaa !119
  %53 = getelementptr inbounds nuw i8, ptr %0, i64 40
  %54 = load ptr, ptr %53, align 8, !tbaa !4
  %55 = getelementptr inbounds nuw i8, ptr %54, i64 112
  %56 = load ptr, ptr %55, align 8, !tbaa !27
  %.not69 = icmp eq ptr %56, null
  br i1 %.not69, label %62, label %57

57:                                               ; preds = %49
  %58 = getelementptr inbounds nuw i8, ptr %2, i64 24
  %59 = load ptr, ptr %58, align 8, !tbaa !103
  %60 = getelementptr inbounds nuw i8, ptr %56, i64 48
  store i32 1, ptr %60, align 8, !tbaa !49
  %.sroa.2.0..sroa_idx = getelementptr inbounds nuw i8, ptr %56, i64 52
  store i32 2, ptr %.sroa.2.0..sroa_idx, align 4, !tbaa !49
  %.sroa.3.0..sroa_idx = getelementptr inbounds nuw i8, ptr %56, i64 56
  store i32 1, ptr %.sroa.3.0..sroa_idx, align 8, !tbaa !49
  %.sroa.4.0..sroa_idx = getelementptr inbounds nuw i8, ptr %56, i64 60
  store i32 0, ptr %.sroa.4.0..sroa_idx, align 4
  %.sroa.5.0..sroa_idx = getelementptr inbounds nuw i8, ptr %56, i64 64
  store i32 %.154, ptr %.sroa.5.0..sroa_idx, align 8
  %.sroa.6.0..sroa_idx = getelementptr inbounds nuw i8, ptr %56, i64 68
  store i32 0, ptr %.sroa.6.0..sroa_idx, align 4, !tbaa !113
  store ptr %60, ptr %59, align 8, !tbaa !120
  %61 = getelementptr inbounds nuw i8, ptr %59, i64 8
  store i32 1, ptr %61, align 8, !tbaa !121
  br label %62

62:                                               ; preds = %49, %57, %14, %48, %23, %12
  %.0 = phi i32 [ -38, %12 ], [ -38, %23 ], [ -22, %48 ], [ -12, %14 ], [ 0, %57 ], [ 0, %49 ]
  call void @llvm.lifetime.end.p0(i64 4, ptr nonnull %5) #4
  call void @llvm.lifetime.end.p0(i64 8, ptr nonnull %4) #4
  ret i32 %.0
}